; ModuleID = 'source-C-CXX/24/56.cpp'
source_filename = "source-C-CXX/24/56.cpp"
target datalayout = "e-m:e-p270:32:32-p271:32:32-p272:64:64-i64:64-f80:128-n8:16:32:64-S128"
target triple = "x86_64-pc-linux-gnu"

%"class.std::ios_base::Init" = type { i8 }
%"class.std::basic_istream" = type { i32 (...)**, i64, %"class.std::basic_ios" }
%"class.std::basic_ios" = type { %"class.std::ios_base", %"class.std::basic_ostream"*, i8, i8, %"class.std::basic_streambuf"*, %"class.std::ctype"*, %"class.std::num_put"*, %"class.std::num_get"* }
%"class.std::ios_base" = type { i32 (...)**, i64, i64, i32, i32, i32, %"struct.std::ios_base::_Callback_list"*, %"struct.std::ios_base::_Words", [8 x %"struct.std::ios_base::_Words"], i32, %"struct.std::ios_base::_Words"*, %"class.std::locale" }
%"struct.std::ios_base::_Callback_list" = type { %"struct.std::ios_base::_Callback_list"*, void (i32, %"class.std::ios_base"*, i32)*, i32, i32 }
%"struct.std::ios_base::_Words" = type { i8*, i64 }
%"class.std::locale" = type { %"class.std::locale::_Impl"* }
%"class.std::locale::_Impl" = type { i32, %"class.std::locale::facet"**, i64, %"class.std::locale::facet"**, i8** }
%"class.std::locale::facet" = type <{ i32 (...)**, i32, [4 x i8] }>
%"class.std::basic_ostream" = type { i32 (...)**, %"class.std::basic_ios" }
%"class.std::basic_streambuf" = type { i32 (...)**, i8*, i8*, i8*, i8*, i8*, i8*, %"class.std::locale" }
%"class.std::ctype" = type <{ %"class.std::locale::facet.base", [4 x i8], %struct.__locale_struct*, i8, [7 x i8], i32*, i32*, i16*, i8, [256 x i8], [256 x i8], i8, [6 x i8] }>
%"class.std::locale::facet.base" = type <{ i32 (...)**, i32 }>
%struct.__locale_struct = type { [13 x %struct.__locale_data*], i16*, i32*, i32*, [13 x i8*] }
%struct.__locale_data = type opaque
%"class.std::num_put" = type { %"class.std::locale::facet.base", [4 x i8] }
%"class.std::num_get" = type { %"class.std::locale::facet.base", [4 x i8] }

@_ZStL8__ioinit = internal global %"class.std::ios_base::Init" zeroinitializer, align 1
@__dso_handle = external hidden global i8
@_ZSt3cin = external global %"class.std::basic_istream", align 8
@_ZSt4cout = external global %"class.std::basic_ostream", align 8
@llvm.global_ctors = appending global [1 x { i32, void ()*, i8* }] [{ i32, void ()*, i8* } { i32 65535, void ()* @_GLOBAL__sub_I_56.cpp, i8* null }]

declare void @_ZNSt8ios_base4InitC1Ev(%"class.std::ios_base::Init"* nonnull align 1 dereferenceable(1)) unnamed_addr #0

; Function Attrs: nounwind
declare void @_ZNSt8ios_base4InitD1Ev(%"class.std::ios_base::Init"* nonnull align 1 dereferenceable(1)) unnamed_addr #1

; Function Attrs: nofree nounwind
declare i32 @__cxa_atexit(void (i8*)*, i8*, i8*) local_unnamed_addr #2

; Function Attrs: mustprogress norecurse sspstrong uwtable
define dso_local i32 @main() local_unnamed_addr #3 {
  %1 = alloca i32, align 4
  %2 = alloca [400 x i32], align 16
  %3 = bitcast i32* %1 to i8*
  call void @llvm.lifetime.start.p0i8(i64 4, i8* nonnull %3) #8
  %4 = call nonnull align 8 dereferenceable(16) %"class.std::basic_istream"* @_ZNSirsERi(%"class.std::basic_istream"* nonnull align 8 dereferenceable(16) @_ZSt3cin, i32* nonnull align 4 dereferenceable(4) %1)
  %5 = bitcast [400 x i32]* %2 to i8*
  call void @llvm.lifetime.start.p0i8(i64 1600, i8* nonnull %5) #8
  call void @llvm.memset.p0i8.i64(i8* noundef nonnull align 16 dereferenceable(1600) %5, i8 0, i64 1600, i1 false)
  %6 = getelementptr inbounds [400 x i32], [400 x i32]* %2, i64 0, i64 399
  store i32 1, i32* %6, align 4, !tbaa !5
  %7 = load i32, i32* %1, align 4, !tbaa !5
  %8 = icmp sgt i32 %7, 0
  br i1 %8, label %10, label %9

9:                                                ; preds = %37, %0
  br label %56

10:                                               ; preds = %0, %37
  %11 = phi i32 [ %38, %37 ], [ 0, %0 ]
  br label %12

12:                                               ; preds = %12, %10
  %13 = phi i64 [ 0, %10 ], [ %35, %12 ]
  %14 = getelementptr inbounds [400 x i32], [400 x i32]* %2, i64 0, i64 %13
  %15 = bitcast i32* %14 to <4 x i32>*
  %16 = load <4 x i32>, <4 x i32>* %15, align 16, !tbaa !5
  %17 = getelementptr inbounds i32, i32* %14, i64 4
  %18 = bitcast i32* %17 to <4 x i32>*
  %19 = load <4 x i32>, <4 x i32>* %18, align 16, !tbaa !5
  %20 = shl nsw <4 x i32> %16, <i32 1, i32 1, i32 1, i32 1>
  %21 = shl nsw <4 x i32> %19, <i32 1, i32 1, i32 1, i32 1>
  %22 = bitcast i32* %14 to <4 x i32>*
  store <4 x i32> %20, <4 x i32>* %22, align 16, !tbaa !5
  %23 = bitcast i32* %17 to <4 x i32>*
  store <4 x i32> %21, <4 x i32>* %23, align 16, !tbaa !5
  %24 = or i64 %13, 8
  %25 = getelementptr inbounds [400 x i32], [400 x i32]* %2, i64 0, i64 %24
  %26 = bitcast i32* %25 to <4 x i32>*
  %27 = load <4 x i32>, <4 x i32>* %26, align 16, !tbaa !5
  %28 = getelementptr inbounds i32, i32* %25, i64 4
  %29 = bitcast i32* %28 to <4 x i32>*
  %30 = load <4 x i32>, <4 x i32>* %29, align 16, !tbaa !5
  %31 = shl nsw <4 x i32> %27, <i32 1, i32 1, i32 1, i32 1>
  %32 = shl nsw <4 x i32> %30, <i32 1, i32 1, i32 1, i32 1>
  %33 = bitcast i32* %25 to <4 x i32>*
  store <4 x i32> %31, <4 x i32>* %33, align 16, !tbaa !5
  %34 = bitcast i32* %28 to <4 x i32>*
  store <4 x i32> %32, <4 x i32>* %34, align 16, !tbaa !5
  %35 = add nuw nsw i64 %13, 16
  %36 = icmp eq i64 %35, 400
  br i1 %36, label %40, label %12, !llvm.loop !9

37:                                               ; preds = %53
  %38 = add nuw nsw i32 %11, 1
  %39 = icmp eq i32 %38, %7
  br i1 %39, label %9, label %10, !llvm.loop !12

40:                                               ; preds = %12, %53
  %41 = phi i64 [ %54, %53 ], [ 399, %12 ]
  %42 = getelementptr inbounds [400 x i32], [400 x i32]* %2, i64 0, i64 %41
  %43 = load i32, i32* %42, align 4, !tbaa !5
  %44 = icmp sgt i32 %43, 9
  br i1 %44, label %47, label %45

45:                                               ; preds = %40
  %46 = add nsw i64 %41, -1
  br label %53

47:                                               ; preds = %40
  %48 = add nsw i32 %43, -10
  store i32 %48, i32* %42, align 4, !tbaa !5
  %49 = add nsw i64 %41, -1
  %50 = getelementptr inbounds [400 x i32], [400 x i32]* %2, i64 0, i64 %49
  %51 = load i32, i32* %50, align 4, !tbaa !5
  %52 = add nsw i32 %51, 1
  store i32 %52, i32* %50, align 4, !tbaa !5
  br label %53

53:                                               ; preds = %45, %47
  %54 = phi i64 [ %46, %45 ], [ %49, %47 ]
  %55 = icmp eq i64 %41, 0
  br i1 %55, label %37, label %40, !llvm.loop !13

56:                                               ; preds = %122, %9
  %57 = phi i64 [ 0, %9 ], [ %123, %122 ]
  %58 = getelementptr inbounds [400 x i32], [400 x i32]* %2, i64 0, i64 %57
  %59 = load i32, i32* %58, align 4, !tbaa !5
  %60 = icmp eq i32 %59, 0
  br i1 %60, label %61, label %66

61:                                               ; preds = %56
  %62 = add nuw nsw i64 %57, 1
  %63 = getelementptr inbounds [400 x i32], [400 x i32]* %2, i64 0, i64 %62
  %64 = load i32, i32* %63, align 4, !tbaa !5
  %65 = icmp eq i32 %64, 0
  br i1 %65, label %107, label %66

66:                                               ; preds = %117, %112, %107, %61, %56
  %67 = phi i64 [ %57, %56 ], [ %62, %61 ], [ %108, %107 ], [ %113, %112 ], [ %118, %117 ]
  %68 = trunc i64 %67 to i32
  %69 = icmp ult i32 %68, 400
  br i1 %69, label %70, label %72

70:                                               ; preds = %66
  %71 = and i64 %67, 4294967295
  br label %100

72:                                               ; preds = %122, %100, %66
  %73 = load i8*, i8** bitcast (%"class.std::basic_ostream"* @_ZSt4cout to i8**), align 8, !tbaa !14
  %74 = getelementptr i8, i8* %73, i64 -24
  %75 = bitcast i8* %74 to i64*
  %76 = load i64, i64* %75, align 8
  %77 = add nsw i64 %76, 240
  %78 = getelementptr inbounds i8, i8* bitcast (%"class.std::basic_ostream"* @_ZSt4cout to i8*), i64 %77
  %79 = bitcast i8* %78 to %"class.std::ctype"**
  %80 = load %"class.std::ctype"*, %"class.std::ctype"** %79, align 8, !tbaa !16
  %81 = icmp eq %"class.std::ctype"* %80, null
  br i1 %81, label %82, label %83

82:                                               ; preds = %72
  call void @_ZSt16__throw_bad_castv() #9
  unreachable

83:                                               ; preds = %72
  %84 = getelementptr inbounds %"class.std::ctype", %"class.std::ctype"* %80, i64 0, i32 8
  %85 = load i8, i8* %84, align 8, !tbaa !20
  %86 = icmp eq i8 %85, 0
  br i1 %86, label %90, label %87

87:                                               ; preds = %83
  %88 = getelementptr inbounds %"class.std::ctype", %"class.std::ctype"* %80, i64 0, i32 9, i64 10
  %89 = load i8, i8* %88, align 1, !tbaa !22
  br label %96

90:                                               ; preds = %83
  call void @_ZNKSt5ctypeIcE13_M_widen_initEv(%"class.std::ctype"* nonnull align 8 dereferenceable(570) %80)
  %91 = bitcast %"class.std::ctype"* %80 to i8 (%"class.std::ctype"*, i8)***
  %92 = load i8 (%"class.std::ctype"*, i8)**, i8 (%"class.std::ctype"*, i8)*** %91, align 8, !tbaa !14
  %93 = getelementptr inbounds i8 (%"class.std::ctype"*, i8)*, i8 (%"class.std::ctype"*, i8)** %92, i64 6
  %94 = load i8 (%"class.std::ctype"*, i8)*, i8 (%"class.std::ctype"*, i8)** %93, align 8
  %95 = call signext i8 %94(%"class.std::ctype"* nonnull align 8 dereferenceable(570) %80, i8 signext 10)
  br label %96

96:                                               ; preds = %87, %90
  %97 = phi i8 [ %89, %87 ], [ %95, %90 ]
  %98 = call nonnull align 8 dereferenceable(8) %"class.std::basic_ostream"* @_ZNSo3putEc(%"class.std::basic_ostream"* nonnull align 8 dereferenceable(8) @_ZSt4cout, i8 signext %97)
  %99 = call nonnull align 8 dereferenceable(8) %"class.std::basic_ostream"* @_ZNSo5flushEv(%"class.std::basic_ostream"* nonnull align 8 dereferenceable(8) %98)
  call void @llvm.lifetime.end.p0i8(i64 1600, i8* nonnull %5) #8
  call void @llvm.lifetime.end.p0i8(i64 4, i8* nonnull %3) #8
  ret i32 0

100:                                              ; preds = %70, %100
  %101 = phi i64 [ %71, %70 ], [ %105, %100 ]
  %102 = getelementptr inbounds [400 x i32], [400 x i32]* %2, i64 0, i64 %101
  %103 = load i32, i32* %102, align 4, !tbaa !5
  %104 = call nonnull align 8 dereferenceable(8) %"class.std::basic_ostream"* @_ZNSolsEi(%"class.std::basic_ostream"* nonnull align 8 dereferenceable(8) @_ZSt4cout, i32 %103)
  %105 = add nuw nsw i64 %101, 1
  %106 = icmp eq i64 %105, 400
  br i1 %106, label %72, label %100, !llvm.loop !23

107:                                              ; preds = %61
  %108 = add nuw nsw i64 %57, 2
  %109 = getelementptr inbounds [400 x i32], [400 x i32]* %2, i64 0, i64 %108
  %110 = load i32, i32* %109, align 4, !tbaa !5
  %111 = icmp eq i32 %110, 0
  br i1 %111, label %112, label %66

112:                                              ; preds = %107
  %113 = add nuw nsw i64 %57, 3
  %114 = getelementptr inbounds [400 x i32], [400 x i32]* %2, i64 0, i64 %113
  %115 = load i32, i32* %114, align 4, !tbaa !5
  %116 = icmp eq i32 %115, 0
  br i1 %116, label %117, label %66

117:                                              ; preds = %112
  %118 = add nuw nsw i64 %57, 4
  %119 = getelementptr inbounds [400 x i32], [400 x i32]* %2, i64 0, i64 %118
  %120 = load i32, i32* %119, align 4, !tbaa !5
  %121 = icmp eq i32 %120, 0
  br i1 %121, label %122, label %66

122:                                              ; preds = %117
  %123 = add nuw nsw i64 %57, 5
  %124 = icmp eq i64 %123, 400
  br i1 %124, label %72, label %56, !llvm.loop !24
}

; Function Attrs: argmemonly mustprogress nofree nosync nounwind willreturn
declare void @llvm.lifetime.start.p0i8(i64 immarg, i8* nocapture) #4

declare nonnull align 8 dereferenceable(16) %"class.std::basic_istream"* @_ZNSirsERi(%"class.std::basic_istream"* nonnull align 8 dereferenceable(16), i32* nonnull align 4 dereferenceable(4)) local_unnamed_addr #0

; Function Attrs: argmemonly mustprogress nofree nounwind willreturn writeonly
declare void @llvm.memset.p0i8.i64(i8* nocapture writeonly, i8, i64, i1 immarg) #5

; Function Attrs: argmemonly mustprogress nofree nosync nounwind willreturn
declare void @llvm.lifetime.end.p0i8(i64 immarg, i8* nocapture) #4

declare nonnull align 8 dereferenceable(8) %"class.std::basic_ostream"* @_ZNSolsEi(%"class.std::basic_ostream"* nonnull align 8 dereferenceable(8), i32) local_unnamed_addr #0

declare nonnull align 8 dereferenceable(8) %"class.std::basic_ostream"* @_ZNSo3putEc(%"class.std::basic_ostream"* nonnull align 8 dereferenceable(8), i8 signext) local_unnamed_addr #0

declare nonnull align 8 dereferenceable(8) %"class.std::basic_ostream"* @_ZNSo5flushEv(%"class.std::basic_ostream"* nonnull align 8 dereferenceable(8)) local_unnamed_addr #0

; Function Attrs: noreturn
declare void @_ZSt16__throw_bad_castv() local_unnamed_addr #6

declare void @_ZNKSt5ctypeIcE13_M_widen_initEv(%"class.std::ctype"* nonnull align 8 dereferenceable(570)) local_unnamed_addr #0

; Function Attrs: sspstrong uwtable
define internal void @_GLOBAL__sub_I_56.cpp() #7 section ".text.startup" {
  tail call void @_ZNSt8ios_base4InitC1Ev(%"class.std::ios_base::Init"* nonnull align 1 dereferenceable(1) @_ZStL8__ioinit)
  %1 = tail call i32 @__cxa_atexit(void (i8*)* bitcast (void (%"class.std::ios_base::Init"*)* @_ZNSt8ios_base4InitD1Ev to void (i8*)*), i8* getelementptr inbounds (%"class.std::ios_base::Init", %"class.std::ios_base::Init"* @_ZStL8__ioinit, i64 0, i32 0), i8* nonnull @__dso_handle) #8
  ret void
}


!llvm.module.flags = !{!0, !1, !2, !3}
!llvm.ident = !{!4}

!0 = !{i32 1, !"wchar_size", i32 4}
!1 = !{i32 7, !"PIC Level", i32 2}
!2 = !{i32 7, !"PIE Level", i32 2}
!3 = !{i32 7, !"uwtable", i32 1}
!4 = !{!"clang version 13.0.0"}
!5 = !{!6, !6, i64 0}
!6 = !{!"int", !7, i64 0}
!7 = !{!"omnipotent char", !8, i64 0}
!8 = !{!"Simple C++ TBAA"}
!9 = distinct !{!9, !10, !11}
!10 = !{!"llvm.loop.mustprogress"}
!11 = !{!"llvm.loop.isvectorized", i32 1}
!12 = distinct !{!12, !10}
!13 = distinct !{!13, !10}
!14 = !{!15, !15, i64 0}
!15 = !{!"vtable pointer", !8, i64 0}
!16 = !{!17, !18, i64 240}
!17 = !{!"_ZTSSt9basic_iosIcSt11char_traitsIcEE", !18, i64 216, !7, i64 224, !19, i64 225, !18, i64 232, !18, i64 240, !18, i64 248, !18, i64 256}
!18 = !{!"any pointer", !7, i64 0}
!19 = !{!"bool", !7, i64 0}
!20 = !{!21, !7, i64 56}
!21 = !{!"_ZTSSt5ctypeIcE", !18, i64 16, !19, i64 24, !18, i64 32, !18, i64 40, !18, i64 48, !7, i64 56, !7, i64 57, !7, i64 313, !7, i64 569}
!22 = !{!7, !7, i64 0}
!23 = distinct !{!23, !10}
!24 = distinct !{!24, !10}
